; Function Attrs: nounwind uwtable
define internal void @ehooks_default_destroy(ptr readnone captures(none) %0, ptr noundef %1, i64 noundef %2, i1 zeroext %3, i32 %4) #1 {
  %6 = tail call zeroext i1 @je_extent_in_dss(ptr noundef %1) #6
  br i1 %6, label %je_ehooks_default_destroy_impl.exit, label %7

7:                                                ; preds = %5
  tail call void @je_pages_unmap(ptr noundef %1, i64 noundef %2) #6
  br label %je_ehooks_default_destroy_impl.exit

je_ehooks_default_destroy_impl.exit:              ; preds = %5, %7
  ret void
}